ARM GAS  C:\Users\owri753\AppData\Local\Temp\ccmtBSMZ.s 			page 1


   1              		.syntax unified
   2              		.cpu cortex-m3
   3              		.fpu softvfp
   4              		.eabi_attribute 20, 1
   5              		.eabi_attribute 21, 1
   6              		.eabi_attribute 23, 3
   7              		.eabi_attribute 24, 1
   8              		.eabi_attribute 25, 1
   9              		.eabi_attribute 26, 1
  10              		.eabi_attribute 30, 1
  11              		.eabi_attribute 34, 1
  12              		.eabi_attribute 18, 4
  13              		.thumb
  14              		.syntax unified
  15              		.file	"main.c"
  16              		.text
  17              	.Ltext0:
  18              		.cfi_sections	.debug_frame
  19              		.section	.text.adc_finished_interrupt,"ax",%progbits
  20              		.align	2
  21              		.global	adc_finished_interrupt
  22              		.thumb
  23              		.thumb_func
  24              		.type	adc_finished_interrupt, %function
  25              	adc_finished_interrupt:
  26              	.LFB63:
  27              		.file 1 "main.c"
   1:main.c        **** /* ========================================
   2:main.c        ****  *
   3:main.c        ****  * Copyright YOUR COMPANY, THE YEAR
   4:main.c        ****  * All Rights Reserved
   5:main.c        ****  * UNPUBLISHED, LICENSED SOFTWARE.
   6:main.c        ****  *
   7:main.c        ****  * CONFIDENTIAL AND PROPRIETARY INFORMATION
   8:main.c        ****  * WHICH IS THE PROPERTY OF your company.
   9:main.c        ****  *
  10:main.c        ****  * ========================================
  11:main.c        **** */
  12:main.c        **** #include "project.h"
  13:main.c        **** 
  14:main.c        **** void uart_send_str(const char* data);
  15:main.c        **** void uart_conv_uint16(uint16_t x);
  16:main.c        **** volatile static uint16 ADCresult;
  17:main.c        **** volatile static uint8_t adc_flag = 0;
  18:main.c        **** 
  19:main.c        **** CY_ISR(adc_finished_interrupt) {
  28              		.loc 1 19 0
  29              		.cfi_startproc
  30              		@ args = 0, pretend = 0, frame = 0
  31              		@ frame_needed = 0, uses_anonymous_args = 0
  32 0000 08B5     		push	{r3, lr}
  33              		.cfi_def_cfa_offset 8
  34              		.cfi_offset 3, -8
  35              		.cfi_offset 14, -4
  20:main.c        ****     ADCresult = ADC_SAR_1_GetResult16();
  36              		.loc 1 20 0
  37 0002 FFF7FEFF 		bl	ADC_SAR_1_GetResult16
ARM GAS  C:\Users\owri753\AppData\Local\Temp\ccmtBSMZ.s 			page 2


  38              	.LVL0:
  39 0006 80B2     		uxth	r0, r0
  40 0008 044B     		ldr	r3, .L3
  41 000a 1880     		strh	r0, [r3]	@ movhi
  21:main.c        ****     adc_flag = !adc_flag;
  42              		.loc 1 21 0
  43 000c 9A78     		ldrb	r2, [r3, #2]	@ zero_extendqisi2
  44 000e 12F0FF0F 		tst	r2, #255
  45 0012 0CBF     		ite	eq
  46 0014 0122     		moveq	r2, #1
  47 0016 0022     		movne	r2, #0
  48 0018 9A70     		strb	r2, [r3, #2]
  49 001a 08BD     		pop	{r3, pc}
  50              	.L4:
  51              		.align	2
  52              	.L3:
  53 001c 00000000 		.word	.LANCHOR0
  54              		.cfi_endproc
  55              	.LFE63:
  56              		.size	adc_finished_interrupt, .-adc_finished_interrupt
  57              		.section	.text.uart_send_str,"ax",%progbits
  58              		.align	2
  59              		.global	uart_send_str
  60              		.thumb
  61              		.thumb_func
  62              		.type	uart_send_str, %function
  63              	uart_send_str:
  64              	.LFB65:
  22:main.c        ****     //uart_conv_uint16(ADCresult);
  23:main.c        **** }
  24:main.c        **** 
  25:main.c        **** int main(void)
  26:main.c        **** {
  27:main.c        ****     CyGlobalIntEnable; /* Enable global interrupts. */
  28:main.c        ****     
  29:main.c        ****     /* Place your initialization/startup code here (e.g. MyInst_Start()) */
  30:main.c        ****     Timer_1_Start();   
  31:main.c        ****     ADC_SAR_1_Start();
  32:main.c        ****     ADC_Finished_Interrupt_StartEx(adc_finished_interrupt);
  33:main.c        ****     VDAC8_1_Start();
  34:main.c        ****     
  35:main.c        ****     // INITIALIZE READING:
  36:main.c        ****     USBUART_1_Start(0, USBUART_1_5V_OPERATION);
  37:main.c        **** 
  38:main.c        ****     uart_send_str("Hello World ");
  39:main.c        ****     uart_conv_uint16(0);
  40:main.c        ****     
  41:main.c        ****     
  42:main.c        **** 
  43:main.c        ****     uint8_t prev_adc_flag = adc_flag;
  44:main.c        ****     for(;;)
  45:main.c        ****     {
  46:main.c        ****         /* Place your application code here. */
  47:main.c        ****         if(prev_adc_flag != adc_flag) {
  48:main.c        ****             uint16_t mV = ADC_SAR_1_CountsTo_mVolts(ADCresult);
  49:main.c        ****             uint8_t dacVal = (ADCresult >> 4 /* Account for difference between 12bit ADC and 8bit D
  50:main.c        ****             VDAC8_1_SetValue(dacVal);
ARM GAS  C:\Users\owri753\AppData\Local\Temp\ccmtBSMZ.s 			page 3


  51:main.c        **** //            uart_conv_uint16(mV);
  52:main.c        **** //            uart_send_str(", ");
  53:main.c        **** //            uart_conv_uint16(dacVal);
  54:main.c        **** //            uart_send_str("\r\n");
  55:main.c        ****             prev_adc_flag = adc_flag;
  56:main.c        ****         }
  57:main.c        ****         
  58:main.c        ****     }
  59:main.c        **** }
  60:main.c        **** 
  61:main.c        **** void uart_send_str(const char* data) {
  65              		.loc 1 61 0
  66              		.cfi_startproc
  67              		@ args = 0, pretend = 0, frame = 0
  68              		@ frame_needed = 0, uses_anonymous_args = 0
  69              	.LVL1:
  70 0000 10B5     		push	{r4, lr}
  71              		.cfi_def_cfa_offset 8
  72              		.cfi_offset 4, -8
  73              		.cfi_offset 14, -4
  74 0002 0446     		mov	r4, r0
  75              	.LVL2:
  76              	.L6:
  62:main.c        ****     while(USBUART_1_CDCIsReady() == 0) {}
  77              		.loc 1 62 0 discriminator 1
  78 0004 FFF7FEFF 		bl	USBUART_1_CDCIsReady
  79              	.LVL3:
  80 0008 0028     		cmp	r0, #0
  81 000a FBD0     		beq	.L6
  63:main.c        ****     USBUART_1_PutString(data);
  82              		.loc 1 63 0
  83 000c 2046     		mov	r0, r4
  84 000e FFF7FEFF 		bl	USBUART_1_PutString
  85              	.LVL4:
  86 0012 10BD     		pop	{r4, pc}
  87              		.cfi_endproc
  88              	.LFE65:
  89              		.size	uart_send_str, .-uart_send_str
  90              		.section	.text.uart_conv_uint16,"ax",%progbits
  91              		.align	2
  92              		.global	uart_conv_uint16
  93              		.thumb
  94              		.thumb_func
  95              		.type	uart_conv_uint16, %function
  96              	uart_conv_uint16:
  97              	.LFB66:
  64:main.c        **** }
  65:main.c        **** 
  66:main.c        **** void uart_conv_uint16(uint16_t data) {
  98              		.loc 1 66 0
  99              		.cfi_startproc
 100              		@ args = 0, pretend = 0, frame = 8
 101              		@ frame_needed = 0, uses_anonymous_args = 0
 102              	.LVL5:
 103 0000 30B5     		push	{r4, r5, lr}
 104              		.cfi_def_cfa_offset 12
 105              		.cfi_offset 4, -12
ARM GAS  C:\Users\owri753\AppData\Local\Temp\ccmtBSMZ.s 			page 4


 106              		.cfi_offset 5, -8
 107              		.cfi_offset 14, -4
 108 0002 83B0     		sub	sp, sp, #12
 109              		.cfi_def_cfa_offset 24
  67:main.c        ****     char digits[5] = {'?'};
 110              		.loc 1 67 0
 111 0004 0024     		movs	r4, #0
 112 0006 0094     		str	r4, [sp]
 113 0008 8DF80440 		strb	r4, [sp, #4]
 114 000c 3F23     		movs	r3, #63
 115 000e 8DF80030 		strb	r3, [sp]
 116              	.LVL6:
  68:main.c        **** 
  69:main.c        ****     size_t i;
  70:main.c        ****     for(i = 0; data != 0 && i < 5; i++) {
 117              		.loc 1 70 0
 118 0012 10E0     		b	.L9
 119              	.LVL7:
 120              	.L11:
  71:main.c        ****         digits[4 - i] = '0' + (data % 10);
 121              		.loc 1 71 0 discriminator 4
 122 0014 C4F10402 		rsb	r2, r4, #4
 123 0018 02AB     		add	r3, sp, #8
 124 001a 1A44     		add	r2, r2, r3
 125 001c 0D4B     		ldr	r3, .L13
 126 001e A3FB0013 		umull	r1, r3, r3, r0
 127 0022 DB08     		lsrs	r3, r3, #3
 128 0024 03EB8305 		add	r5, r3, r3, lsl #2
 129 0028 6900     		lsls	r1, r5, #1
 130 002a 401A     		subs	r0, r0, r1
 131              	.LVL8:
 132 002c 3030     		adds	r0, r0, #48
 133 002e 02F8080C 		strb	r0, [r2, #-8]
  72:main.c        ****         data /= 10;
 134              		.loc 1 72 0 discriminator 4
 135 0032 98B2     		uxth	r0, r3
 136              	.LVL9:
  70:main.c        ****         digits[4 - i] = '0' + (data % 10);
 137              		.loc 1 70 0 discriminator 4
 138 0034 0134     		adds	r4, r4, #1
 139              	.LVL10:
 140              	.L9:
  70:main.c        ****         digits[4 - i] = '0' + (data % 10);
 141              		.loc 1 70 0 is_stmt 0 discriminator 1
 142 0036 08B1     		cbz	r0, .L10
  70:main.c        ****         digits[4 - i] = '0' + (data % 10);
 143              		.loc 1 70 0 discriminator 3
 144 0038 042C     		cmp	r4, #4
 145 003a EBD9     		bls	.L11
 146              	.LVL11:
 147              	.L10:
  73:main.c        ****     }
  74:main.c        ****     
  75:main.c        ****     while(USBUART_1_CDCIsReady() == 0) {}
 148              		.loc 1 75 0 is_stmt 1 discriminator 1
 149 003c FFF7FEFF 		bl	USBUART_1_CDCIsReady
 150              	.LVL12:
ARM GAS  C:\Users\owri753\AppData\Local\Temp\ccmtBSMZ.s 			page 5


 151 0040 0028     		cmp	r0, #0
 152 0042 FBD0     		beq	.L10
  76:main.c        ****     USBUART_1_PutData((const uint8_t*)digits + (5 - i), i);
 153              		.loc 1 76 0
 154 0044 C4F10500 		rsb	r0, r4, #5
 155 0048 A1B2     		uxth	r1, r4
 156 004a 6844     		add	r0, r0, sp
 157 004c FFF7FEFF 		bl	USBUART_1_PutData
 158              	.LVL13:
  77:main.c        **** }
 159              		.loc 1 77 0
 160 0050 03B0     		add	sp, sp, #12
 161              		.cfi_def_cfa_offset 12
 162              		@ sp needed
 163 0052 30BD     		pop	{r4, r5, pc}
 164              	.LVL14:
 165              	.L14:
 166              		.align	2
 167              	.L13:
 168 0054 CDCCCCCC 		.word	-858993459
 169              		.cfi_endproc
 170              	.LFE66:
 171              		.size	uart_conv_uint16, .-uart_conv_uint16
 172              		.section	.text.main,"ax",%progbits
 173              		.align	2
 174              		.global	main
 175              		.thumb
 176              		.thumb_func
 177              		.type	main, %function
 178              	main:
 179              	.LFB64:
  26:main.c        ****     CyGlobalIntEnable; /* Enable global interrupts. */
 180              		.loc 1 26 0
 181              		.cfi_startproc
 182              		@ args = 0, pretend = 0, frame = 0
 183              		@ frame_needed = 0, uses_anonymous_args = 0
 184 0000 10B5     		push	{r4, lr}
 185              		.cfi_def_cfa_offset 8
 186              		.cfi_offset 4, -8
 187              		.cfi_offset 14, -4
  27:main.c        ****     
 188              		.loc 1 27 0
 189              		.syntax unified
 190              	@ 27 "main.c" 1
 191 0002 62B6     		CPSIE   i
 192              	@ 0 "" 2
  30:main.c        ****     ADC_SAR_1_Start();
 193              		.loc 1 30 0
 194              		.thumb
 195              		.syntax unified
 196 0004 FFF7FEFF 		bl	Timer_1_Start
 197              	.LVL15:
  31:main.c        ****     ADC_Finished_Interrupt_StartEx(adc_finished_interrupt);
 198              		.loc 1 31 0
 199 0008 FFF7FEFF 		bl	ADC_SAR_1_Start
 200              	.LVL16:
  32:main.c        ****     VDAC8_1_Start();
ARM GAS  C:\Users\owri753\AppData\Local\Temp\ccmtBSMZ.s 			page 6


 201              		.loc 1 32 0
 202 000c 1148     		ldr	r0, .L19
 203 000e FFF7FEFF 		bl	ADC_Finished_Interrupt_StartEx
 204              	.LVL17:
  33:main.c        ****     
 205              		.loc 1 33 0
 206 0012 FFF7FEFF 		bl	VDAC8_1_Start
 207              	.LVL18:
  36:main.c        **** 
 208              		.loc 1 36 0
 209 0016 0121     		movs	r1, #1
 210 0018 0020     		movs	r0, #0
 211 001a FFF7FEFF 		bl	USBUART_1_Start
 212              	.LVL19:
  38:main.c        ****     uart_conv_uint16(0);
 213              		.loc 1 38 0
 214 001e 0E48     		ldr	r0, .L19+4
 215 0020 FFF7FEFF 		bl	uart_send_str
 216              	.LVL20:
  39:main.c        ****     
 217              		.loc 1 39 0
 218 0024 0020     		movs	r0, #0
 219 0026 FFF7FEFF 		bl	uart_conv_uint16
 220              	.LVL21:
  43:main.c        ****     for(;;)
 221              		.loc 1 43 0
 222 002a 0C4B     		ldr	r3, .L19+8
 223 002c 9A78     		ldrb	r2, [r3, #2]	@ zero_extendqisi2
 224 002e D2B2     		uxtb	r2, r2
 225              	.LVL22:
 226              	.L16:
  47:main.c        ****             uint16_t mV = ADC_SAR_1_CountsTo_mVolts(ADCresult);
 227              		.loc 1 47 0
 228 0030 0A4B     		ldr	r3, .L19+8
 229 0032 9B78     		ldrb	r3, [r3, #2]	@ zero_extendqisi2
 230 0034 DBB2     		uxtb	r3, r3
 231 0036 9A42     		cmp	r2, r3
 232 0038 FAD0     		beq	.L16
 233              	.LBB2:
  48:main.c        ****             uint8_t dacVal = (ADCresult >> 4 /* Account for difference between 12bit ADC and 8bit D
 234              		.loc 1 48 0
 235 003a 084C     		ldr	r4, .L19+8
 236 003c 2088     		ldrh	r0, [r4]
 237 003e 00B2     		sxth	r0, r0
 238 0040 FFF7FEFF 		bl	ADC_SAR_1_CountsTo_mVolts
 239              	.LVL23:
  49:main.c        ****             VDAC8_1_SetValue(dacVal);
 240              		.loc 1 49 0
 241 0044 2088     		ldrh	r0, [r4]
 242              	.LVL24:
  50:main.c        **** //            uart_conv_uint16(mV);
 243              		.loc 1 50 0
 244 0046 C0F34710 		ubfx	r0, r0, #5, #8
 245              	.LVL25:
 246 004a FFF7FEFF 		bl	VDAC8_1_SetValue
 247              	.LVL26:
  55:main.c        ****         }
ARM GAS  C:\Users\owri753\AppData\Local\Temp\ccmtBSMZ.s 			page 7


 248              		.loc 1 55 0
 249 004e A278     		ldrb	r2, [r4, #2]	@ zero_extendqisi2
 250 0050 D2B2     		uxtb	r2, r2
 251              	.LVL27:
 252 0052 EDE7     		b	.L16
 253              	.L20:
 254              		.align	2
 255              	.L19:
 256 0054 00000000 		.word	adc_finished_interrupt
 257 0058 00000000 		.word	.LC0
 258 005c 00000000 		.word	.LANCHOR0
 259              	.LBE2:
 260              		.cfi_endproc
 261              	.LFE64:
 262              		.size	main, .-main
 263              		.section	.rodata.str1.4,"aMS",%progbits,1
 264              		.align	2
 265              	.LC0:
 266 0000 48656C6C 		.ascii	"Hello World \000"
 266      6F20576F 
 266      726C6420 
 266      00
 267              		.bss
 268              		.align	1
 269              		.set	.LANCHOR0,. + 0
 270              		.type	ADCresult, %object
 271              		.size	ADCresult, 2
 272              	ADCresult:
 273 0000 0000     		.space	2
 274              		.type	adc_flag, %object
 275              		.size	adc_flag, 1
 276              	adc_flag:
 277 0002 00       		.space	1
 278              		.text
 279              	.Letext0:
 280              		.file 2 "c:\\program files (x86)\\cypress\\psoc creator\\4.2\\psoc creator\\import\\gnu\\arm\\5.4.
 281              		.file 3 "c:\\program files (x86)\\cypress\\psoc creator\\4.2\\psoc creator\\import\\gnu\\arm\\5.4.
 282              		.file 4 "Generated_Source\\PSoC5/cytypes.h"
 283              		.file 5 "c:\\program files (x86)\\cypress\\psoc creator\\4.2\\psoc creator\\import\\gnu\\arm\\5.4.
 284              		.file 6 "Generated_Source\\PSoC5/ADC_SAR_1.h"
 285              		.file 7 "Generated_Source\\PSoC5/USBUART_1_cdc.h"
 286              		.file 8 "Generated_Source\\PSoC5/VDAC8_1.h"
 287              		.file 9 "Generated_Source\\PSoC5/Timer_1.h"
 288              		.file 10 "Generated_Source\\PSoC5/ADC_Finished_Interrupt.h"
 289              		.file 11 "Generated_Source\\PSoC5/USBUART_1.h"
 290              		.file 12 "Generated_Source\\PSoC5/core_cm3.h"